target datalayout = "e-m:e-p270:32:32-p271:32:32-p272:64:64-i64:64-i128:128-f80:128-n8:16:32:64-S128"
target triple = "x86_64-pc-linux-gnu"

%struct.sdshdr8 = type { i8, i8, i8, [0 x i8] }
%struct.sdshdr16 = type <{ i16, i16, i8, [0 x i8] }>
%struct.sdshdr32 = type <{ i32, i32, i8, [0 x i8] }>
%struct.sdshdr64 = type <{ i64, i64, i8, [0 x i8] }>
%struct.streamConsumer = type { i64, i64, ptr, ptr }

@.str.135 = private unnamed_addr constant [7 x i8] c"XGROUP\00", align 1
@.str.136 = private unnamed_addr constant [15 x i8] c"CREATECONSUMER\00", align 1

; Function Attrs: inlinehint nounwind uwtable
define internal i64 @sdslen(ptr noundef %0) #6 {
  %2 = alloca i64, align 8
  %3 = alloca ptr, align 8
  %4 = alloca i8, align 1
  %5 = alloca i32, align 4
  store ptr %0, ptr %3, align 8, !tbaa !18
  call void @llvm.lifetime.start.p0(i64 1, ptr %4) #12
  %6 = load ptr, ptr %3, align 8, !tbaa !18
  %7 = getelementptr inbounds i8, ptr %6, i64 -1
  %8 = load i8, ptr %7, align 1, !tbaa !19
  store i8 %8, ptr %4, align 1, !tbaa !19
  %9 = load i8, ptr %4, align 1, !tbaa !19
  %10 = zext i8 %9 to i32
  %11 = and i32 %10, 7
  switch i32 %11, label %40 [
    i32 0, label %12
    i32 1, label %17
    i32 2, label %23
    i32 3, label %29
    i32 4, label %35
  ]

12:                                               ; preds = %1
  %13 = load i8, ptr %4, align 1, !tbaa !19
  %14 = zext i8 %13 to i32
  %15 = ashr i32 %14, 3
  %16 = sext i32 %15 to i64
  store i64 %16, ptr %2, align 8
  store i32 1, ptr %5, align 4
  br label %41

17:                                               ; preds = %1
  %18 = load ptr, ptr %3, align 8, !tbaa !18
  %19 = getelementptr inbounds i8, ptr %18, i64 -3
  %20 = getelementptr inbounds nuw %struct.sdshdr8, ptr %19, i32 0, i32 0
  %21 = load i8, ptr %20, align 1, !tbaa !19
  %22 = zext i8 %21 to i64
  store i64 %22, ptr %2, align 8
  store i32 1, ptr %5, align 4
  br label %41

23:                                               ; preds = %1
  %24 = load ptr, ptr %3, align 8, !tbaa !18
  %25 = getelementptr inbounds i8, ptr %24, i64 -5
  %26 = getelementptr inbounds nuw %struct.sdshdr16, ptr %25, i32 0, i32 0
  %27 = load i16, ptr %26, align 1, !tbaa !20
  %28 = zext i16 %27 to i64
  store i64 %28, ptr %2, align 8
  store i32 1, ptr %5, align 4
  br label %41

29:                                               ; preds = %1
  %30 = load ptr, ptr %3, align 8, !tbaa !18
  %31 = getelementptr inbounds i8, ptr %30, i64 -9
  %32 = getelementptr inbounds nuw %struct.sdshdr32, ptr %31, i32 0, i32 0
  %33 = load i32, ptr %32, align 1, !tbaa !22
  %34 = zext i32 %33 to i64
  store i64 %34, ptr %2, align 8
  store i32 1, ptr %5, align 4
  br label %41

35:                                               ; preds = %1
  %36 = load ptr, ptr %3, align 8, !tbaa !18
  %37 = getelementptr inbounds i8, ptr %36, i64 -17
  %38 = getelementptr inbounds nuw %struct.sdshdr64, ptr %37, i32 0, i32 0
  %39 = load i64, ptr %38, align 1, !tbaa !23
  store i64 %39, ptr %2, align 8
  store i32 1, ptr %5, align 4
  br label %41

40:                                               ; preds = %1
  store i64 0, ptr %2, align 8
  store i32 1, ptr %5, align 4
  br label %41

41:                                               ; preds = %40, %35, %29, %23, %17, %12
  call void @llvm.lifetime.end.p0(i64 1, ptr %4) #12
  %42 = load i64, ptr %2, align 8
  ret i64 %42
}

; Function Attrs: nounwind uwtable
define dso_local i32 @rioWriteStreamEmptyConsumer(ptr noundef %0, ptr noundef %1, ptr noundef %2, i64 noundef %3, ptr noundef %4) #0 {
  %6 = alloca i32, align 4
  %7 = alloca ptr, align 8
  %8 = alloca ptr, align 8
  %9 = alloca ptr, align 8
  %10 = alloca i64, align 8
  %11 = alloca ptr, align 8
  store ptr %0, ptr %7, align 8, !tbaa !173
  store ptr %1, ptr %8, align 8, !tbaa !132
  store ptr %2, ptr %9, align 8, !tbaa !18
  store i64 %3, ptr %10, align 8, !tbaa !23
  store ptr %4, ptr %11, align 8, !tbaa !206
  %12 = load ptr, ptr %7, align 8, !tbaa !173
  %13 = call i64 @rioWriteBulkCount(ptr noundef %12, i8 noundef signext 42, i64 noundef 5)
  %14 = icmp eq i64 %13, 0
  br i1 %14, label %15, label %16

15:                                               ; preds = %5
  store i32 0, ptr %6, align 4
  br label %52

16:                                               ; preds = %5
  %17 = load ptr, ptr %7, align 8, !tbaa !173
  %18 = call i64 @rioWriteBulkString(ptr noundef %17, ptr noundef @.str.135, i64 noundef 6)
  %19 = icmp eq i64 %18, 0
  br i1 %19, label %20, label %21

20:                                               ; preds = %16
  store i32 0, ptr %6, align 4
  br label %52

21:                                               ; preds = %16
  %22 = load ptr, ptr %7, align 8, !tbaa !173
  %23 = call i64 @rioWriteBulkString(ptr noundef %22, ptr noundef @.str.136, i64 noundef 14)
  %24 = icmp eq i64 %23, 0
  br i1 %24, label %25, label %26

25:                                               ; preds = %21
  store i32 0, ptr %6, align 4
  br label %52

26:                                               ; preds = %21
  %27 = load ptr, ptr %7, align 8, !tbaa !173
  %28 = load ptr, ptr %8, align 8, !tbaa !132
  %29 = call i32 @rioWriteBulkObject(ptr noundef %27, ptr noundef %28)
  %30 = icmp eq i32 %29, 0
  br i1 %30, label %31, label %32

31:                                               ; preds = %26
  store i32 0, ptr %6, align 4
  br label %52

32:                                               ; preds = %26
  %33 = load ptr, ptr %7, align 8, !tbaa !173
  %34 = load ptr, ptr %9, align 8, !tbaa !18
  %35 = load i64, ptr %10, align 8, !tbaa !23
  %36 = call i64 @rioWriteBulkString(ptr noundef %33, ptr noundef %34, i64 noundef %35)
  %37 = icmp eq i64 %36, 0
  br i1 %37, label %38, label %39

38:                                               ; preds = %32
  store i32 0, ptr %6, align 4
  br label %52

39:                                               ; preds = %32
  %40 = load ptr, ptr %7, align 8, !tbaa !173
  %41 = load ptr, ptr %11, align 8, !tbaa !206
  %42 = getelementptr inbounds nuw %struct.streamConsumer, ptr %41, i32 0, i32 2
  %43 = load ptr, ptr %42, align 8, !tbaa !210
  %44 = load ptr, ptr %11, align 8, !tbaa !206
  %45 = getelementptr inbounds nuw %struct.streamConsumer, ptr %44, i32 0, i32 2
  %46 = load ptr, ptr %45, align 8, !tbaa !210
  %47 = call i64 @sdslen(ptr noundef %46)
  %48 = call i64 @rioWriteBulkString(ptr noundef %40, ptr noundef %43, i64 noundef %47)
  %49 = icmp eq i64 %48, 0
  br i1 %49, label %50, label %51

50:                                               ; preds = %39
  store i32 0, ptr %6, align 4
  br label %52

51:                                               ; preds = %39
  store i32 1, ptr %6, align 4
  br label %52

52:                                               ; preds = %51, %50, %38, %31, %25, %20, %15
  %53 = load i32, ptr %6, align 4
  ret i32 %53
}