; Function Attrs: nounwind uwtable
define dso_local range(i32 0, 2) i32 @rioWriteStreamEmptyConsumer(ptr noundef %0, ptr noundef readonly captures(none) %1, ptr noundef %2, i64 noundef %3, ptr noundef readonly captures(none) %4) local_unnamed_addr #0 {
  %6 = tail call i64 @rioWriteBulkCount(ptr noundef %0, i8 noundef signext 42, i64 noundef 5) #20
  %7 = icmp eq i64 %6, 0
  br i1 %7, label %47, label %8

8:                                                ; preds = %5
  %9 = tail call i64 @rioWriteBulkString(ptr noundef %0, ptr noundef nonnull @.str.135, i64 noundef 6) #20
  %10 = icmp eq i64 %9, 0
  br i1 %10, label %47, label %11

11:                                               ; preds = %8
  %12 = tail call i64 @rioWriteBulkString(ptr noundef %0, ptr noundef nonnull @.str.136, i64 noundef 14) #20
  %13 = icmp eq i64 %12, 0
  br i1 %13, label %47, label %14

14:                                               ; preds = %11
  %15 = tail call i32 @rioWriteBulkObject(ptr noundef %0, ptr noundef %1)
  %16 = icmp eq i32 %15, 0
  br i1 %16, label %47, label %17

17:                                               ; preds = %14
  %18 = tail call i64 @rioWriteBulkString(ptr noundef %0, ptr noundef %2, i64 noundef %3) #20
  %19 = icmp eq i64 %18, 0
  br i1 %19, label %47, label %20

20:                                               ; preds = %17
  %21 = getelementptr inbounds nuw i8, ptr %4, i64 16
  %22 = load ptr, ptr %21, align 8, !tbaa !178
  %23 = getelementptr inbounds i8, ptr %22, i64 -1
  %24 = load i8, ptr %23, align 1, !tbaa !18
  %25 = zext i8 %24 to i32
  %26 = and i32 %25, 7
  switch i32 %26, label %sdslen.exit [
    i32 0, label %27
    i32 1, label %30
    i32 2, label %34
    i32 3, label %38
    i32 4, label %42
  ]

27:                                               ; preds = %20
  %28 = lshr i32 %25, 3
  %29 = zext nneg i32 %28 to i64
  br label %sdslen.exit

30:                                               ; preds = %20
  %31 = getelementptr inbounds i8, ptr %22, i64 -3
  %32 = load i8, ptr %31, align 1, !tbaa !18
  %33 = zext i8 %32 to i64
  br label %sdslen.exit

34:                                               ; preds = %20
  %35 = getelementptr inbounds i8, ptr %22, i64 -5
  %36 = load i16, ptr %35, align 1, !tbaa !19
  %37 = zext i16 %36 to i64
  br label %sdslen.exit

38:                                               ; preds = %20
  %39 = getelementptr inbounds i8, ptr %22, i64 -9
  %40 = load i32, ptr %39, align 1, !tbaa !21
  %41 = zext i32 %40 to i64
  br label %sdslen.exit

42:                                               ; preds = %20
  %43 = getelementptr inbounds i8, ptr %22, i64 -17
  %44 = load i64, ptr %43, align 1, !tbaa !22
  br label %sdslen.exit

sdslen.exit:                                      ; preds = %20, %27, %30, %34, %38, %42
  %.0.i = phi i64 [ %44, %42 ], [ %41, %38 ], [ %37, %34 ], [ %33, %30 ], [ %29, %27 ], [ 0, %20 ]
  %45 = tail call i64 @rioWriteBulkString(ptr noundef %0, ptr noundef nonnull %22, i64 noundef %.0.i) #20
  %46 = icmp ne i64 %45, 0
  %. = zext i1 %46 to i32
  br label %47

47:                                               ; preds = %sdslen.exit, %17, %14, %11, %8, %5
  %.0 = phi i32 [ 0, %5 ], [ 0, %8 ], [ 0, %11 ], [ 0, %14 ], [ 0, %17 ], [ %., %sdslen.exit ]
  ret i32 %.0
}